; Function Attrs: mustprogress nofree norecurse nosync nounwind willreturn memory(read, inaccessiblemem: none) uwtable
define dso_local noundef ptr @_ZN5clang4Expr14IgnoreImpCastsEv(ptr noundef nonnull readonly align 8 dereferenceable(16) %0) local_unnamed_addr #0 align 2 {
  br label %.lr.ph.i

.lr.ph.i:                                         ; preds = %1, %_ZN5clang29IgnoreImplicitCastsSingleStepEPNS_4ExprE.exit
  %.068.i = phi ptr [ %4, %_ZN5clang29IgnoreImplicitCastsSingleStepEPNS_4ExprE.exit ], [ %0, %1 ]
  %2 = load i8, ptr %.068.i, align 8
  switch i8 %2, label %_ZN5clang15IgnoreExprNodesIJRFPNS_4ExprES2_EEEES2_S2_DpOT_.exit [
    i8 79, label %_ZN5clang29IgnoreImplicitCastsSingleStepEPNS_4ExprE.exit
    i8 61, label %_ZN5clang29IgnoreImplicitCastsSingleStepEPNS_4ExprE.exit
    i8 60, label %_ZN5clang29IgnoreImplicitCastsSingleStepEPNS_4ExprE.exit
  ]

_ZN5clang29IgnoreImplicitCastsSingleStepEPNS_4ExprE.exit: ; preds = %.lr.ph.i, %.lr.ph.i, %.lr.ph.i
  %3 = getelementptr inbounds nuw i8, ptr %.068.i, i64 16
  %4 = load ptr, ptr %3, align 8
  %.not.i = icmp eq ptr %4, %.068.i
  br i1 %.not.i, label %_ZN5clang15IgnoreExprNodesIJRFPNS_4ExprES2_EEEES2_S2_DpOT_.exit, label %.lr.ph.i, !llvm.loop !7

_ZN5clang15IgnoreExprNodesIJRFPNS_4ExprES2_EEEES2_S2_DpOT_.exit: ; preds = %.lr.ph.i, %_ZN5clang29IgnoreImplicitCastsSingleStepEPNS_4ExprE.exit
  %.0.i3 = phi ptr [ %4, %_ZN5clang29IgnoreImplicitCastsSingleStepEPNS_4ExprE.exit ], [ %.068.i, %.lr.ph.i ]
  ret ptr %.0.i3
}